target datalayout = "e-m:e-p270:32:32-p271:32:32-p272:64:64-i64:64-i128:128-f80:128-n8:16:32:64-S128"
target triple = "x86_64-pc-linux-gnu"

%"class.icu_77::UnicodeString" = type { %"class.icu_77::Replaceable", %"union.icu_77::UnicodeString::StackBufferOrFields" }
%"class.icu_77::Replaceable" = type { %"class.icu_77::UObject" }
%"class.icu_77::UObject" = type { ptr }
%"union.icu_77::UnicodeString::StackBufferOrFields" = type { %struct.anon.3, [32 x i8] }
%struct.anon.3 = type { i16, i32, i32, ptr }
%"class.icu_77::Region" = type { %"class.icu_77::UObject", [4 x i8], %"class.icu_77::UnicodeString", i32, i32, ptr, ptr, ptr }
%"class.icu_77::UVector" = type { %"class.icu_77::UObject", i32, i32, ptr, ptr, ptr }
%"struct.icu_77::UInitOnce" = type { %"struct.std::atomic", i32 }
%"struct.std::atomic" = type { %"struct.std::__atomic_base" }
%"struct.std::__atomic_base" = type { i32 }

@_ZN6icu_77L11regionIDMapE = internal global ptr null, align 8
@_ZN6icu_77L13regionAliasesE = internal global ptr null, align 8
@_ZN6icu_77L19gRegionDataInitOnceE = internal global { { i32 }, i32 } zeroinitializer, align 4

; Function Attrs: mustprogress nounwind uwtable
define linkonce_odr noundef i32 @_ZStanSt12memory_orderSt23__memory_order_modifier(i32 noundef %0, i32 noundef %1) #0 comdat {
  %3 = alloca i32, align 4
  %4 = alloca i32, align 4
  store i32 %0, ptr %3, align 4, !tbaa !148
  store i32 %1, ptr %4, align 4, !tbaa !150
  %5 = load i32, ptr %3, align 4, !tbaa !148
  %6 = load i32, ptr %4, align 4, !tbaa !150
  %7 = and i32 %5, %6
  ret i32 %7
}

; Function Attrs: alwaysinline mustprogress nounwind uwtable
define linkonce_odr noundef i32 @_ZNKSt13__atomic_baseIiE4loadESt12memory_order(ptr noundef nonnull align 4 dereferenceable(4) %0, i32 noundef %1) #11 comdat align 2 {
  %3 = alloca ptr, align 8
  %4 = alloca i32, align 4
  %5 = alloca i32, align 4
  %6 = alloca i32, align 4
  store ptr %0, ptr %3, align 8, !tbaa !146
  store i32 %1, ptr %4, align 4, !tbaa !148
  %7 = load ptr, ptr %3, align 8
  call void @llvm.lifetime.start.p0(i64 4, ptr %5) #12
  %8 = load i32, ptr %4, align 4, !tbaa !148
  %9 = call noundef i32 @_ZStanSt12memory_orderSt23__memory_order_modifier(i32 noundef %8, i32 noundef 65535)
  store i32 %9, ptr %5, align 4, !tbaa !148
  br label %10

10:                                               ; preds = %2
  br label %11

11:                                               ; preds = %10
  br label %12

12:                                               ; preds = %11
  br label %13

13:                                               ; preds = %12
  br label %14

14:                                               ; preds = %13
  br label %15

15:                                               ; preds = %14
  %16 = getelementptr inbounds nuw %"struct.std::__atomic_base", ptr %7, i32 0, i32 0
  %17 = load i32, ptr %4, align 4, !tbaa !148
  switch i32 %17, label %18 [
    i32 1, label %20
    i32 2, label %20
    i32 5, label %22
  ]

18:                                               ; preds = %15
  %19 = load atomic i32, ptr %16 monotonic, align 4
  store i32 %19, ptr %6, align 4
  br label %24

20:                                               ; preds = %15, %15
  %21 = load atomic i32, ptr %16 acquire, align 4
  store i32 %21, ptr %6, align 4
  br label %24

22:                                               ; preds = %15
  %23 = load atomic i32, ptr %16 seq_cst, align 4
  store i32 %23, ptr %6, align 4
  br label %24

24:                                               ; preds = %22, %20, %18
  %25 = load i32, ptr %6, align 4, !tbaa !14
  call void @llvm.lifetime.end.p0(i64 4, ptr %5) #12
  ret i32 %25
}

; Function Attrs: inlinehint mustprogress nounwind uwtable
define linkonce_odr noundef i32 @_ZN6icu_7716umtx_loadAcquireERSt6atomicIiE(ptr noundef nonnull align 4 dereferenceable(4) %0) #2 comdat {
  %2 = alloca ptr, align 8
  store ptr %0, ptr %2, align 8, !tbaa !152
  %3 = load ptr, ptr %2, align 8, !tbaa !152
  %4 = call noundef i32 @_ZNKSt13__atomic_baseIiE4loadESt12memory_order(ptr noundef nonnull align 4 dereferenceable(4) %3, i32 noundef 2) #12
  ret i32 %4
}

; Function Attrs: inlinehint mustprogress nounwind uwtable
define linkonce_odr noundef i32 @_ZNK6icu_777UVector4sizeEv(ptr noundef nonnull align 8 dereferenceable(40) %0) #2 comdat align 2 {
  %2 = alloca ptr, align 8
  store ptr %0, ptr %2, align 8, !tbaa !25
  %3 = load ptr, ptr %2, align 8
  %4 = getelementptr inbounds nuw %"class.icu_77::UVector", ptr %3, i32 0, i32 1
  %5 = load i32, ptr %4, align 8, !tbaa !104
  ret i32 %5
}

; Function Attrs: inlinehint mustprogress nounwind uwtable
define internal noundef signext i8 @_ZL9U_FAILURE10UErrorCode(i32 noundef %0) #2 {
  %2 = alloca i32, align 4
  store i32 %0, ptr %2, align 4, !tbaa !15
  %3 = load i32, ptr %2, align 4, !tbaa !15
  %4 = icmp sgt i32 %3, 0
  %5 = zext i1 %4 to i8
  ret i8 %5
}

; Function Attrs: inlinehint mustprogress uwtable
define linkonce_odr void @_ZN6icu_7713umtx_initOnceERNS_9UInitOnceEPFvR10UErrorCodeES3_(ptr noundef nonnull align 4 dereferenceable(8) %0, ptr noundef %1, ptr noundef nonnull align 4 dereferenceable(4) %2) #3 comdat {
  %4 = alloca ptr, align 8
  %5 = alloca ptr, align 8
  %6 = alloca ptr, align 8
  store ptr %0, ptr %4, align 8, !tbaa !114
  store ptr %1, ptr %5, align 8, !tbaa !22
  store ptr %2, ptr %6, align 8, !tbaa !22
  %7 = load ptr, ptr %6, align 8, !tbaa !22
  %8 = load i32, ptr %7, align 4, !tbaa !15
  %9 = call noundef signext i8 @_ZL9U_FAILURE10UErrorCode(i32 noundef %8)
  %10 = icmp ne i8 %9, 0
  br i1 %10, label %11, label %12

11:                                               ; preds = %3
  br label %41

12:                                               ; preds = %3
  %13 = load ptr, ptr %4, align 8, !tbaa !114
  %14 = getelementptr inbounds nuw %"struct.icu_77::UInitOnce", ptr %13, i32 0, i32 0
  %15 = call noundef i32 @_ZN6icu_7716umtx_loadAcquireERSt6atomicIiE(ptr noundef nonnull align 4 dereferenceable(4) %14)
  %16 = icmp ne i32 %15, 2
  br i1 %16, label %17, label %29

17:                                               ; preds = %12
  %18 = load ptr, ptr %4, align 8, !tbaa !114
  %19 = call noundef signext i8 @_ZN6icu_7720umtx_initImplPreInitERNS_9UInitOnceE(ptr noundef nonnull align 4 dereferenceable(8) %18)
  %20 = icmp ne i8 %19, 0
  br i1 %20, label %21, label %29

21:                                               ; preds = %17
  %22 = load ptr, ptr %5, align 8, !tbaa !22
  %23 = load ptr, ptr %6, align 8, !tbaa !22
  call void %22(ptr noundef nonnull align 4 dereferenceable(4) %23)
  %24 = load ptr, ptr %6, align 8, !tbaa !22
  %25 = load i32, ptr %24, align 4, !tbaa !15
  %26 = load ptr, ptr %4, align 8, !tbaa !114
  %27 = getelementptr inbounds nuw %"struct.icu_77::UInitOnce", ptr %26, i32 0, i32 1
  store i32 %25, ptr %27, align 4, !tbaa !120
  %28 = load ptr, ptr %4, align 8, !tbaa !114
  call void @_ZN6icu_7721umtx_initImplPostInitERNS_9UInitOnceE(ptr noundef nonnull align 4 dereferenceable(8) %28)
  br label %41

29:                                               ; preds = %17, %12
  %30 = load ptr, ptr %4, align 8, !tbaa !114
  %31 = getelementptr inbounds nuw %"struct.icu_77::UInitOnce", ptr %30, i32 0, i32 1
  %32 = load i32, ptr %31, align 4, !tbaa !120
  %33 = call noundef signext i8 @_ZL9U_FAILURE10UErrorCode(i32 noundef %32)
  %34 = icmp ne i8 %33, 0
  br i1 %34, label %35, label %40

35:                                               ; preds = %29
  %36 = load ptr, ptr %4, align 8, !tbaa !114
  %37 = getelementptr inbounds nuw %"struct.icu_77::UInitOnce", ptr %36, i32 0, i32 1
  %38 = load i32, ptr %37, align 4, !tbaa !120
  %39 = load ptr, ptr %6, align 8, !tbaa !22
  store i32 %38, ptr %39, align 4, !tbaa !15
  br label %40

40:                                               ; preds = %35, %29
  br label %41

41:                                               ; preds = %11, %40, %21
  ret void
}

; Function Attrs: mustprogress uwtable
define noundef ptr @_ZN6icu_776Region11getInstanceEPKcR10UErrorCode(ptr noundef %0, ptr noundef nonnull align 4 dereferenceable(4) %1) #1 align 2 personality ptr @__gxx_personality_v0 {
  %3 = alloca ptr, align 8
  %4 = alloca ptr, align 8
  %5 = alloca ptr, align 8
  %6 = alloca %"class.icu_77::UnicodeString", align 8
  %7 = alloca ptr, align 8
  %8 = alloca ptr, align 8
  %9 = alloca i32, align 4
  %10 = alloca i32, align 4
  %11 = alloca ptr, align 8
  %12 = alloca ptr, align 8
  store ptr %0, ptr %4, align 8, !tbaa !17
  store ptr %1, ptr %5, align 8, !tbaa !22
  %13 = load ptr, ptr %5, align 8, !tbaa !22
  call void @_ZN6icu_7713umtx_initOnceERNS_9UInitOnceEPFvR10UErrorCodeES3_(ptr noundef nonnull align 4 dereferenceable(8) @_ZN6icu_77L19gRegionDataInitOnceE, ptr noundef @_ZN6icu_776Region14loadRegionDataER10UErrorCode, ptr noundef nonnull align 4 dereferenceable(4) %13)
  %14 = load ptr, ptr %5, align 8, !tbaa !22
  %15 = load i32, ptr %14, align 4, !tbaa !15
  %16 = call noundef signext i8 @_ZL9U_FAILURE10UErrorCode(i32 noundef %15)
  %17 = icmp ne i8 %16, 0
  br i1 %17, label %18, label %19

18:                                               ; preds = %2
  store ptr null, ptr %3, align 8
  br label %98

19:                                               ; preds = %2
  %20 = load ptr, ptr %4, align 8, !tbaa !17
  %21 = icmp ne ptr %20, null
  br i1 %21, label %24, label %22

22:                                               ; preds = %19
  %23 = load ptr, ptr %5, align 8, !tbaa !22
  store i32 1, ptr %23, align 4, !tbaa !15
  store ptr null, ptr %3, align 8
  br label %98

24:                                               ; preds = %19
  call void @llvm.lifetime.start.p0(i64 64, ptr %6) #12
  %25 = load ptr, ptr %4, align 8, !tbaa !17
  call void @_ZN6icu_7713UnicodeStringC1EPKciNS0_10EInvariantE(ptr noundef nonnull align 8 dereferenceable(64) %6, ptr noundef %25, i32 noundef -1, i32 noundef 0)
  call void @llvm.lifetime.start.p0(i64 8, ptr %7) #12
  %26 = load ptr, ptr @_ZN6icu_77L11regionIDMapE, align 8, !tbaa !66
  %27 = invoke ptr @uhash_get_77(ptr noundef %26, ptr noundef %6)
          to label %28 unwind label %35

28:                                               ; preds = %24
  store ptr %27, ptr %7, align 8, !tbaa !49
  %29 = load ptr, ptr %7, align 8, !tbaa !49
  %30 = icmp ne ptr %29, null
  br i1 %30, label %39, label %31

31:                                               ; preds = %28
  %32 = load ptr, ptr @_ZN6icu_77L13regionAliasesE, align 8, !tbaa !66
  %33 = invoke ptr @uhash_get_77(ptr noundef %32, ptr noundef %6)
          to label %34 unwind label %35

34:                                               ; preds = %31
  store ptr %33, ptr %7, align 8, !tbaa !49
  br label %39

35:                                               ; preds = %49, %31, %24
  %36 = landingpad { ptr, i32 }
          cleanup
  %37 = extractvalue { ptr, i32 } %36, 0
  store ptr %37, ptr %8, align 8
  %38 = extractvalue { ptr, i32 } %36, 1
  store i32 %38, ptr %9, align 4
  br label %97

39:                                               ; preds = %34, %28
  %40 = load ptr, ptr %7, align 8, !tbaa !49
  %41 = icmp ne ptr %40, null
  br i1 %41, label %44, label %42

42:                                               ; preds = %39
  %43 = load ptr, ptr %5, align 8, !tbaa !22
  store i32 1, ptr %43, align 4, !tbaa !15
  store ptr null, ptr %3, align 8
  store i32 1, ptr %10, align 4
  br label %96

44:                                               ; preds = %39
  %45 = load ptr, ptr %7, align 8, !tbaa !49
  %46 = getelementptr inbounds nuw %"class.icu_77::Region", ptr %45, i32 0, i32 4
  %47 = load i32, ptr %46, align 4, !tbaa !38
  %48 = icmp eq i32 %47, 6
  br i1 %48, label %49, label %94

49:                                               ; preds = %44
  %50 = load ptr, ptr %7, align 8, !tbaa !49
  %51 = getelementptr inbounds nuw %"class.icu_77::Region", ptr %50, i32 0, i32 7
  %52 = load ptr, ptr %51, align 8, !tbaa !53
  %53 = invoke noundef i32 @_ZNK6icu_777UVector4sizeEv(ptr noundef nonnull align 8 dereferenceable(40) %52)
          to label %54 unwind label %35

54:                                               ; preds = %49
  %55 = icmp eq i32 %53, 1
  br i1 %55, label %56, label %94

56:                                               ; preds = %54
  call void @llvm.lifetime.start.p0(i64 8, ptr %11) #12
  %57 = load ptr, ptr %7, align 8, !tbaa !49
  %58 = load ptr, ptr %5, align 8, !tbaa !22
  %59 = invoke noundef ptr @_ZNK6icu_776Region18getPreferredValuesER10UErrorCode(ptr noundef nonnull align 8 dereferenceable(112) %57, ptr noundef nonnull align 4 dereferenceable(4) %58)
          to label %60 unwind label %85

60:                                               ; preds = %56
  store ptr %59, ptr %11, align 8, !tbaa !118
  %61 = load ptr, ptr %11, align 8, !tbaa !118
  %62 = load ptr, ptr %5, align 8, !tbaa !22
  %63 = load ptr, ptr %61, align 8, !tbaa !96
  %64 = getelementptr inbounds ptr, ptr %63, i64 8
  %65 = load ptr, ptr %64, align 8
  invoke void %65(ptr noundef nonnull align 8 dereferenceable(116) %61, ptr noundef nonnull align 4 dereferenceable(4) %62)
          to label %66 unwind label %85

66:                                               ; preds = %60
  call void @llvm.lifetime.start.p0(i64 8, ptr %12) #12
  %67 = load ptr, ptr %11, align 8, !tbaa !118
  %68 = load ptr, ptr %5, align 8, !tbaa !22
  %69 = load ptr, ptr %67, align 8, !tbaa !96
  %70 = getelementptr inbounds ptr, ptr %69, i64 7
  %71 = load ptr, ptr %70, align 8
  %72 = invoke noundef ptr %71(ptr noundef nonnull align 8 dereferenceable(116) %67, ptr noundef nonnull align 4 dereferenceable(4) %68)
          to label %73 unwind label %89

73:                                               ; preds = %66
  store ptr %72, ptr %12, align 8, !tbaa !35
  %74 = load ptr, ptr @_ZN6icu_77L11regionIDMapE, align 8, !tbaa !66
  %75 = load ptr, ptr %12, align 8, !tbaa !35
  %76 = invoke ptr @uhash_get_77(ptr noundef %74, ptr noundef %75)
          to label %77 unwind label %89

77:                                               ; preds = %73
  store ptr %76, ptr %7, align 8, !tbaa !49
  %78 = load ptr, ptr %11, align 8, !tbaa !118
  %79 = icmp eq ptr %78, null
  br i1 %79, label %84, label %80

80:                                               ; preds = %77
  %81 = load ptr, ptr %78, align 8, !tbaa !96
  %82 = getelementptr inbounds ptr, ptr %81, i64 1
  %83 = load ptr, ptr %82, align 8
  call void %83(ptr noundef nonnull align 8 dereferenceable(116) %78) #12
  br label %84

84:                                               ; preds = %80, %77
  call void @llvm.lifetime.end.p0(i64 8, ptr %12) #12
  call void @llvm.lifetime.end.p0(i64 8, ptr %11) #12
  br label %94

85:                                               ; preds = %60, %56
  %86 = landingpad { ptr, i32 }
          cleanup
  %87 = extractvalue { ptr, i32 } %86, 0
  store ptr %87, ptr %8, align 8
  %88 = extractvalue { ptr, i32 } %86, 1
  store i32 %88, ptr %9, align 4
  br label %93

89:                                               ; preds = %73, %66
  %90 = landingpad { ptr, i32 }
          cleanup
  %91 = extractvalue { ptr, i32 } %90, 0
  store ptr %91, ptr %8, align 8
  %92 = extractvalue { ptr, i32 } %90, 1
  store i32 %92, ptr %9, align 4
  call void @llvm.lifetime.end.p0(i64 8, ptr %12) #12
  br label %93

93:                                               ; preds = %89, %85
  call void @llvm.lifetime.end.p0(i64 8, ptr %11) #12
  br label %97

94:                                               ; preds = %84, %54, %44
  %95 = load ptr, ptr %7, align 8, !tbaa !49
  store ptr %95, ptr %3, align 8
  store i32 1, ptr %10, align 4
  br label %96

96:                                               ; preds = %94, %42
  call void @llvm.lifetime.end.p0(i64 8, ptr %7) #12
  call void @_ZN6icu_7713UnicodeStringD1Ev(ptr noundef nonnull align 8 dereferenceable(64) %6) #12
  call void @llvm.lifetime.end.p0(i64 64, ptr %6) #12
  br label %98

97:                                               ; preds = %93, %35
  call void @llvm.lifetime.end.p0(i64 8, ptr %7) #12
  call void @_ZN6icu_7713UnicodeStringD1Ev(ptr noundef nonnull align 8 dereferenceable(64) %6) #12
  call void @llvm.lifetime.end.p0(i64 64, ptr %6) #12
  br label %100

98:                                               ; preds = %96, %22, %18
  %99 = load ptr, ptr %3, align 8
  ret ptr %99

100:                                              ; preds = %97
  %101 = load ptr, ptr %8, align 8
  %102 = load i32, ptr %9, align 4
  %103 = insertvalue { ptr, i32 } poison, ptr %101, 0
  %104 = insertvalue { ptr, i32 } %103, i32 %102, 1
  resume { ptr, i32 } %104
}