; Function Attrs: mustprogress uwtable
define noundef ptr @_ZN6icu_776Region11getInstanceEPKcR10UErrorCode(ptr noundef %0, ptr noundef nonnull align 4 dereferenceable(4) %1) local_unnamed_addr #1 align 2 personality ptr @__gxx_personality_v0 {
  %3 = alloca %"class.icu_77::UnicodeString", align 8
  %4 = load i32, ptr %1, align 4, !tbaa !13
  %5 = icmp slt i32 %4, 1
  br i1 %5, label %6, label %_ZN6icu_7713umtx_initOnceERNS_9UInitOnceEPFvR10UErrorCodeES3_.exit.thread

6:                                                ; preds = %2
  %7 = load atomic i32, ptr @_ZN6icu_77L19gRegionDataInitOnceE acquire, align 4
  %.not11.i = icmp eq i32 %7, 2
  br i1 %.not11.i, label %12, label %8

8:                                                ; preds = %6
  %9 = tail call noundef signext i8 @_ZN6icu_7720umtx_initImplPreInitERNS_9UInitOnceE(ptr noundef nonnull align 4 dereferenceable(8) @_ZN6icu_77L19gRegionDataInitOnceE)
  %.not12.i = icmp eq i8 %9, 0
  br i1 %.not12.i, label %12, label %10

10:                                               ; preds = %8
  tail call void @_ZN6icu_776Region14loadRegionDataER10UErrorCode(ptr noundef nonnull align 4 dereferenceable(4) %1)
  %11 = load i32, ptr %1, align 4, !tbaa !13
  store i32 %11, ptr getelementptr inbounds nuw (i8, ptr @_ZN6icu_77L19gRegionDataInitOnceE, i64 4), align 4, !tbaa !98
  tail call void @_ZN6icu_7721umtx_initImplPostInitERNS_9UInitOnceE(ptr noundef nonnull align 4 dereferenceable(8) @_ZN6icu_77L19gRegionDataInitOnceE)
  br label %_ZN6icu_7713umtx_initOnceERNS_9UInitOnceEPFvR10UErrorCodeES3_.exit

12:                                               ; preds = %8, %6
  %13 = load i32, ptr getelementptr inbounds nuw (i8, ptr @_ZN6icu_77L19gRegionDataInitOnceE, i64 4), align 4, !tbaa !98
  %14 = icmp slt i32 %13, 1
  br i1 %14, label %_ZN6icu_7713umtx_initOnceERNS_9UInitOnceEPFvR10UErrorCodeES3_.exit, label %15

15:                                               ; preds = %12
  store i32 %13, ptr %1, align 4, !tbaa !13
  br label %_ZN6icu_7713umtx_initOnceERNS_9UInitOnceEPFvR10UErrorCodeES3_.exit.thread

_ZN6icu_7713umtx_initOnceERNS_9UInitOnceEPFvR10UErrorCodeES3_.exit: ; preds = %10, %12
  %.pr = load i32, ptr %1, align 4, !tbaa !13
  %16 = icmp slt i32 %.pr, 1
  br i1 %16, label %17, label %_ZN6icu_7713umtx_initOnceERNS_9UInitOnceEPFvR10UErrorCodeES3_.exit.thread

17:                                               ; preds = %_ZN6icu_7713umtx_initOnceERNS_9UInitOnceEPFvR10UErrorCodeES3_.exit
  %.not29 = icmp eq ptr %0, null
  br i1 %.not29, label %18, label %19

18:                                               ; preds = %17
  store i32 1, ptr %1, align 4, !tbaa !13
  br label %_ZN6icu_7713umtx_initOnceERNS_9UInitOnceEPFvR10UErrorCodeES3_.exit.thread

19:                                               ; preds = %17
  call void @llvm.lifetime.start.p0(i64 64, ptr nonnull %3) #19
  call void @_ZN6icu_7713UnicodeStringC1EPKciNS0_10EInvariantE(ptr noundef nonnull align 8 dereferenceable(64) %3, ptr noundef nonnull %0, i32 noundef -1, i32 noundef 0)
  %20 = load ptr, ptr @_ZN6icu_77L11regionIDMapE, align 8, !tbaa !96
  %21 = invoke ptr @uhash_get_77(ptr noundef %20, ptr noundef nonnull %3)
          to label %22 unwind label %26

22:                                               ; preds = %19
  %.not30 = icmp eq ptr %21, null
  br i1 %.not30, label %23, label %.thread

23:                                               ; preds = %22
  %24 = load ptr, ptr @_ZN6icu_77L13regionAliasesE, align 8, !tbaa !96
  %25 = invoke ptr @uhash_get_77(ptr noundef %24, ptr noundef nonnull %3)
          to label %28 unwind label %26

26:                                               ; preds = %23, %19
  %27 = landingpad { ptr, i32 }
          cleanup
  br label %62

28:                                               ; preds = %23
  %.not31 = icmp eq ptr %25, null
  br i1 %.not31, label %29, label %.thread

29:                                               ; preds = %28
  store i32 1, ptr %1, align 4, !tbaa !13
  br label %61

.thread:                                          ; preds = %22, %28
  %.02136 = phi ptr [ %25, %28 ], [ %21, %22 ]
  %30 = getelementptr inbounds nuw i8, ptr %.02136, i64 84
  %31 = load i32, ptr %30, align 4, !tbaa !59
  %32 = icmp eq i32 %31, 6
  br i1 %32, label %33, label %61

33:                                               ; preds = %.thread
  %34 = getelementptr inbounds nuw i8, ptr %.02136, i64 104
  %35 = load ptr, ptr %34, align 8, !tbaa !75
  %36 = getelementptr inbounds nuw i8, ptr %35, i64 8
  %37 = load i32, ptr %36, align 8, !tbaa !55
  %38 = icmp eq i32 %37, 1
  br i1 %38, label %39, label %61

39:                                               ; preds = %33
  %40 = invoke noundef ptr @_ZNK6icu_776Region18getPreferredValuesER10UErrorCode(ptr noundef nonnull align 8 dereferenceable(112) %.02136, ptr noundef nonnull align 4 dereferenceable(4) %1)
          to label %41 unwind label %57

41:                                               ; preds = %39
  %42 = load ptr, ptr %40, align 8, !tbaa !26
  %43 = getelementptr inbounds nuw i8, ptr %42, i64 64
  %44 = load ptr, ptr %43, align 8
  invoke void %44(ptr noundef nonnull align 8 dereferenceable(116) %40, ptr noundef nonnull align 4 dereferenceable(4) %1)
          to label %45 unwind label %57

45:                                               ; preds = %41
  %46 = load ptr, ptr %40, align 8, !tbaa !26
  %47 = getelementptr inbounds nuw i8, ptr %46, i64 56
  %48 = load ptr, ptr %47, align 8
  %49 = invoke noundef ptr %48(ptr noundef nonnull align 8 dereferenceable(116) %40, ptr noundef nonnull align 4 dereferenceable(4) %1)
          to label %50 unwind label %59

50:                                               ; preds = %45
  %51 = load ptr, ptr @_ZN6icu_77L11regionIDMapE, align 8, !tbaa !96
  %52 = invoke ptr @uhash_get_77(ptr noundef %51, ptr noundef %49)
          to label %53 unwind label %59

53:                                               ; preds = %50
  %54 = load ptr, ptr %40, align 8, !tbaa !26
  %55 = getelementptr inbounds nuw i8, ptr %54, i64 8
  %56 = load ptr, ptr %55, align 8
  call void %56(ptr noundef nonnull align 8 dereferenceable(116) %40) #19
  br label %61

57:                                               ; preds = %41, %39
  %58 = landingpad { ptr, i32 }
          cleanup
  br label %62

59:                                               ; preds = %50, %45
  %60 = landingpad { ptr, i32 }
          cleanup
  br label %62

61:                                               ; preds = %.thread, %33, %53, %29
  %.1 = phi ptr [ null, %29 ], [ %52, %53 ], [ %.02136, %33 ], [ %.02136, %.thread ]
  call void @_ZN6icu_7713UnicodeStringD1Ev(ptr noundef nonnull align 8 dereferenceable(64) %3) #19
  call void @llvm.lifetime.end.p0(i64 64, ptr nonnull %3) #19
  br label %_ZN6icu_7713umtx_initOnceERNS_9UInitOnceEPFvR10UErrorCodeES3_.exit.thread

62:                                               ; preds = %57, %59, %26
  %.pn.pn = phi { ptr, i32 } [ %27, %26 ], [ %60, %59 ], [ %58, %57 ]
  call void @_ZN6icu_7713UnicodeStringD1Ev(ptr noundef nonnull align 8 dereferenceable(64) %3) #19
  call void @llvm.lifetime.end.p0(i64 64, ptr nonnull %3) #19
  resume { ptr, i32 } %.pn.pn

_ZN6icu_7713umtx_initOnceERNS_9UInitOnceEPFvR10UErrorCodeES3_.exit.thread: ; preds = %15, %2, %_ZN6icu_7713umtx_initOnceERNS_9UInitOnceEPFvR10UErrorCodeES3_.exit, %61, %18
  %.0 = phi ptr [ %.1, %61 ], [ null, %18 ], [ null, %_ZN6icu_7713umtx_initOnceERNS_9UInitOnceEPFvR10UErrorCodeES3_.exit ], [ null, %2 ], [ null, %15 ]
  ret ptr %.0
}